; Function Attrs: mustprogress uwtable
define void @_ZNK2cv22SimpleBlobDetectorImpl5writeERNS_11FileStorageE(ptr noundef nonnull align 8 dereferenceable(112) %0, ptr noundef nonnull align 8 dereferenceable(64) %1) unnamed_addr #6 align 2 {
  %3 = load ptr, ptr %0, align 8
  %4 = getelementptr i8, ptr %3, i64 -80
  %5 = load i64, ptr %4, align 8
  %6 = getelementptr inbounds i8, ptr %0, i64 %5
  tail call void @_ZNK2cv9Algorithm11writeFormatERNS_11FileStorageE(ptr noundef nonnull align 8 dereferenceable(8) %6, ptr noundef nonnull align 8 dereferenceable(64) %1)
  %7 = getelementptr inbounds i8, ptr %0, i64 8
  tail call void @_ZNK2cv18SimpleBlobDetector6Params5writeERNS_11FileStorageE(ptr noundef nonnull align 8 dereferenceable(77) %7, ptr noundef nonnull align 8 dereferenceable(64) %1)
  ret void
}